; Function Attrs: mustprogress nounwind uwtable
define internal noundef zeroext i1 @"_ZNSt17_Function_handlerIFbN3spv2OpEjEZNS0_10spirvbin_t7dceVarsEvE3$_0E9_M_invokeERKSt9_Any_dataOS1_Oj"(ptr nocapture noundef nonnull readonly align 8 dereferenceable(16) %0, ptr nocapture noundef nonnull readonly align 4 dereferenceable(4) %1, ptr nocapture noundef nonnull readonly align 4 dereferenceable(4) %2) #0 align 2 {
  %.val = load i32, ptr %1, align 4
  %.val3 = load i32, ptr %2, align 4
  %4 = getelementptr inbounds i8, ptr %0, i64 8
  %5 = load ptr, ptr %4, align 8
  switch i32 %.val, label %"_ZSt10__invoke_rIbRZN3spv10spirvbin_t7dceVarsEvE3$_0JNS0_2OpEjEENSt9enable_ifIX16is_invocable_r_vIT_T0_DpT1_EES6_E4typeEOS7_DpOS8_.exit" [
    i32 59, label %6
    i32 15, label %16
  ]

6:                                                ; preds = %3
  %7 = load ptr, ptr %0, align 8
  %8 = add i32 %.val3, 2
  %9 = getelementptr inbounds i8, ptr %5, i64 8
  %10 = zext i32 %8 to i64
  %11 = load ptr, ptr %9, align 8
  %12 = getelementptr inbounds i32, ptr %11, i64 %10
  %13 = tail call noundef nonnull align 4 dereferenceable(4) ptr @_ZNSt8__detail9_Map_baseIjSt4pairIKjiESaIS3_ENS_10_Select1stESt8equal_toIjESt4hashIjENS_18_Mod_range_hashingENS_20_Default_ranged_hashENS_20_Prime_rehash_policyENS_17_Hashtable_traitsILb0ELb0ELb1EEELb1EEixERS2_(ptr noundef nonnull align 1 dereferenceable(1) %7, ptr noundef nonnull align 4 dereferenceable(4) %12)
  %14 = load i32, ptr %13, align 4
  %15 = add nsw i32 %14, 1
  store i32 %15, ptr %13, align 4
  br label %"_ZSt10__invoke_rIbRZN3spv10spirvbin_t7dceVarsEvE3$_0JNS0_2OpEjEENSt9enable_ifIX16is_invocable_r_vIT_T0_DpT1_EES6_E4typeEOS7_DpOS8_.exit"

16:                                               ; preds = %3
  %17 = getelementptr inbounds i8, ptr %5, i64 8
  %18 = zext i32 %.val3 to i64
  %19 = load ptr, ptr %17, align 8
  %20 = getelementptr inbounds i32, ptr %19, i64 %18
  %21 = load i32, ptr %20, align 4
  %22 = icmp ugt i32 %21, 327679
  br i1 %22, label %.lr.ph.preheader.i.i.i, label %"_ZSt10__invoke_rIbRZN3spv10spirvbin_t7dceVarsEvE3$_0JNS0_2OpEjEENSt9enable_ifIX16is_invocable_r_vIT_T0_DpT1_EES6_E4typeEOS7_DpOS8_.exit"

.lr.ph.preheader.i.i.i:                           ; preds = %16
  %23 = lshr i32 %21, 16
  %wide.trip.count.i.i.i = zext nneg i32 %23 to i64
  br label %.lr.ph.i.i.i

.lr.ph.i.i.i:                                     ; preds = %.lr.ph.i.i.i, %.lr.ph.preheader.i.i.i
  %indvars.iv.i.i.i = phi i64 [ 4, %.lr.ph.preheader.i.i.i ], [ %indvars.iv.next.i.i.i, %.lr.ph.i.i.i ]
  %24 = load ptr, ptr %0, align 8
  %25 = trunc nuw nsw i64 %indvars.iv.i.i.i to i32
  %26 = add i32 %.val3, %25
  %27 = zext i32 %26 to i64
  %28 = load ptr, ptr %17, align 8
  %29 = getelementptr inbounds i32, ptr %28, i64 %27
  %30 = tail call noundef nonnull align 4 dereferenceable(4) ptr @_ZNSt8__detail9_Map_baseIjSt4pairIKjiESaIS3_ENS_10_Select1stESt8equal_toIjESt4hashIjENS_18_Mod_range_hashingENS_20_Default_ranged_hashENS_20_Prime_rehash_policyENS_17_Hashtable_traitsILb0ELb0ELb1EEELb1EEixERS2_(ptr noundef nonnull align 1 dereferenceable(1) %24, ptr noundef nonnull align 4 dereferenceable(4) %29)
  %31 = load i32, ptr %30, align 4
  %32 = add nsw i32 %31, 1
  store i32 %32, ptr %30, align 4
  %indvars.iv.next.i.i.i = add nuw nsw i64 %indvars.iv.i.i.i, 1
  %exitcond.not.i.i.i = icmp eq i64 %indvars.iv.next.i.i.i, %wide.trip.count.i.i.i
  br i1 %exitcond.not.i.i.i, label %"_ZSt10__invoke_rIbRZN3spv10spirvbin_t7dceVarsEvE3$_0JNS0_2OpEjEENSt9enable_ifIX16is_invocable_r_vIT_T0_DpT1_EES6_E4typeEOS7_DpOS8_.exit", label %.lr.ph.i.i.i, !llvm.loop !137

"_ZSt10__invoke_rIbRZN3spv10spirvbin_t7dceVarsEvE3$_0JNS0_2OpEjEENSt9enable_ifIX16is_invocable_r_vIT_T0_DpT1_EES6_E4typeEOS7_DpOS8_.exit": ; preds = %.lr.ph.i.i.i, %3, %6, %16
  %.010.i.i.i = phi i1 [ true, %6 ], [ false, %3 ], [ true, %16 ], [ true, %.lr.ph.i.i.i ]
  ret i1 %.010.i.i.i
}